(dp0
S'IW_ASSERTION_CHANNEL_STARTAPP'
p1
S'1'
p2
sS'IW_TRACE_CHANNEL_STARTAPP'
p3
g2
sS'I3D_OS_LINUX'
p4
NsS'IW_SDK'
p5
NsS'IW_PLATFORM_LINUX'
p6
NsS'I3D_ARCH_ARM'
p7
NsS'S3E_EXT_STARTAPP'
p8
NsS'IW_USE_ASSERTIONS'
p9
NsS'IW_TRACE_CHANNEL_STARTAPP_VERBOSE'
p10
S'2'
p11
sS'IW_USE_TRACING'
p12
NsS'S3E_ANDROID'
p13
NsS'IW_MKF_STARTAPP_BUILD'
p14
NsS'S3E_BUILD_EXT'
p15
NsS'IW_MKF_EDK'
p16
NsS'I3D_PLATFORM_LINUX'
p17
NsS'IW_DEBUG'
p18
NsS'ANDROID'
p19
Ns.